; Function Attrs: mustprogress uwtable
define void @_ZN5boost3log11v2_mt_posix5sinks17text_file_backend23set_time_based_rotationERKNS1_3aux14light_functionIFbvEEE(ptr nocapture noundef nonnull readonly align 8 dereferenceable(8) %0, ptr nocapture noundef nonnull readonly align 8 dereferenceable(8) %1) local_unnamed_addr #4 align 2 personality ptr @__gxx_personality_v0 {
  %3 = load ptr, ptr %0, align 8, !tbaa !225
  %4 = getelementptr inbounds nuw i8, ptr %3, i64 744
  %5 = load ptr, ptr %1, align 8, !tbaa !223
  %.not.i.i = icmp eq ptr %5, null
  br i1 %.not.i.i, label %_ZN5boost3log11v2_mt_posix3aux14light_functionIFbvEEC2ERKS5_.exit.i, label %6

6:                                                ; preds = %2
  %7 = getelementptr inbounds nuw i8, ptr %5, i64 8
  %8 = load ptr, ptr %7, align 8, !tbaa !249
  %9 = tail call noundef ptr %8(ptr noundef nonnull %5)
  br label %_ZN5boost3log11v2_mt_posix3aux14light_functionIFbvEEC2ERKS5_.exit.i

_ZN5boost3log11v2_mt_posix3aux14light_functionIFbvEEC2ERKS5_.exit.i: ; preds = %6, %2
  %storemerge.i.i = phi ptr [ %9, %6 ], [ null, %2 ]
  %10 = load ptr, ptr %4, align 8, !tbaa !223
  store ptr %storemerge.i.i, ptr %4, align 8, !tbaa !223
  %.not.i.i.i = icmp eq ptr %10, null
  br i1 %.not.i.i.i, label %_ZN5boost3log11v2_mt_posix3aux14light_functionIFbvEEaSERKS5_.exit, label %11

11:                                               ; preds = %_ZN5boost3log11v2_mt_posix3aux14light_functionIFbvEEC2ERKS5_.exit.i
  %12 = getelementptr inbounds nuw i8, ptr %10, i64 16
  %13 = load ptr, ptr %12, align 8, !tbaa !244
  invoke void %13(ptr noundef nonnull %10)
          to label %_ZN5boost3log11v2_mt_posix3aux14light_functionIFbvEEaSERKS5_.exit unwind label %14

14:                                               ; preds = %11
  %15 = landingpad { ptr, i32 }
          catch ptr null
  %16 = extractvalue { ptr, i32 } %15, 0
  tail call void @__clang_call_terminate(ptr %16) #31
  unreachable

_ZN5boost3log11v2_mt_posix3aux14light_functionIFbvEEaSERKS5_.exit: ; preds = %_ZN5boost3log11v2_mt_posix3aux14light_functionIFbvEEC2ERKS5_.exit.i, %11
  ret void
}